target datalayout = "e-m:e-p270:32:32-p271:32:32-p272:64:64-i64:64-i128:128-f80:128-n8:16:32:64-S128"
target triple = "x86_64-pc-linux-gnu"

@.str.11 = private unnamed_addr constant [65 x i8] c"Possible integer overflow in memory allocation (%zu * %zu + %zu)\00", align 1

; Function Attrs: nounwind allocsize(0) uwtable
define noalias ptr @__zend_malloc(i64 noundef %0) #7 {
  %2 = alloca i64, align 8
  %3 = alloca ptr, align 8
  store i64 %0, ptr %2, align 8
  %4 = load i64, ptr %2, align 8
  %5 = call noalias ptr @malloc(i64 noundef %4) #22
  store ptr %5, ptr %3, align 8
  %6 = load ptr, ptr %3, align 8
  %7 = icmp ne ptr %6, null
  br i1 %7, label %12, label %8

8:                                                ; preds = %1
  %9 = load i64, ptr %2, align 8
  %10 = icmp ne i64 %9, 0
  %11 = xor i1 %10, true
  br label %12

12:                                               ; preds = %8, %1
  %13 = phi i1 [ true, %1 ], [ %11, %8 ]
  %14 = xor i1 %13, true
  %15 = xor i1 %14, true
  %16 = zext i1 %15 to i32
  %17 = sext i32 %16 to i64
  %18 = icmp ne i64 %17, 0
  br i1 %18, label %19, label %21

19:                                               ; preds = %12
  %20 = load ptr, ptr %3, align 8
  ret ptr %20

21:                                               ; preds = %12
  call void @zend_out_of_memory() #19
  unreachable
}

; Function Attrs: nounwind allocsize(0,1) uwtable
define noalias ptr @__zend_calloc(i64 noundef %0, i64 noundef %1) #8 {
  %3 = alloca i64, align 8
  %4 = alloca i64, align 8
  %5 = alloca i64, align 8
  %6 = alloca i64, align 8
  %7 = alloca ptr, align 8
  %8 = alloca i64, align 8
  %9 = alloca i64, align 8
  %10 = alloca i64, align 8
  %11 = alloca i64, align 8
  %12 = alloca i64, align 8
  %13 = alloca i8, align 1
  %14 = alloca i64, align 8
  %15 = alloca i64, align 8
  %16 = alloca i64, align 8
  %17 = alloca ptr, align 8
  store i64 %0, ptr %15, align 8
  store i64 %1, ptr %16, align 8
  %18 = load i64, ptr %15, align 8
  %19 = load i64, ptr %16, align 8
  store i64 %18, ptr %10, align 8
  store i64 %19, ptr %11, align 8
  store i64 0, ptr %12, align 8
  %20 = load i64, ptr %10, align 8
  %21 = load i64, ptr %11, align 8
  %22 = load i64, ptr %12, align 8
  store i64 %20, ptr %4, align 8
  store i64 %21, ptr %5, align 8
  store i64 %22, ptr %6, align 8
  store ptr %13, ptr %7, align 8
  %23 = load i64, ptr %4, align 8
  store i64 %23, ptr %8, align 8
  store i64 0, ptr %9, align 8
  %24 = load i64, ptr %6, align 8
  %25 = icmp eq i64 %24, 0
  %26 = zext i1 %25 to i32
  %27 = call i1 @llvm.is.constant.i32(i32 %26)
  br i1 %27, label %28, label %31

28:                                               ; preds = %2
  %29 = load i64, ptr %6, align 8
  %30 = icmp eq i64 %29, 0
  br i1 %30, label %32, label %38

31:                                               ; preds = %2
  br label %38

32:                                               ; preds = %28
  %33 = load i64, ptr %8, align 8
  %34 = load i64, ptr %5, align 8
  %35 = call { i64, i64 } asm "mulq $3\0A\09adc $$0,$1", "=&{ax},=&{dx},%0,rm,~{dirflag},~{fpsr},~{flags}"(i64 %33, i64 %34) #24, !srcloc !4
  %36 = extractvalue { i64, i64 } %35, 0
  %37 = extractvalue { i64, i64 } %35, 1
  store i64 %36, ptr %8, align 8
  store i64 %37, ptr %9, align 8
  br label %45

38:                                               ; preds = %31, %28
  %39 = load i64, ptr %8, align 8
  %40 = load i64, ptr %5, align 8
  %41 = load i64, ptr %6, align 8
  %42 = call { i64, i64 } asm "mulq $3\0A\09add $4,$0\0A\09adc $$0,$1", "=&{ax},=&{dx},%0,rm,rm,~{dirflag},~{fpsr},~{flags}"(i64 %39, i64 %40, i64 %41) #24, !srcloc !5
  %43 = extractvalue { i64, i64 } %42, 0
  %44 = extractvalue { i64, i64 } %42, 1
  store i64 %43, ptr %8, align 8
  store i64 %44, ptr %9, align 8
  br label %45

45:                                               ; preds = %38, %32
  %46 = load i64, ptr %9, align 8
  %47 = icmp ne i64 %46, 0
  br i1 %47, label %48, label %50

48:                                               ; preds = %45
  %49 = load ptr, ptr %7, align 8
  store i8 1, ptr %49, align 1
  store i64 0, ptr %3, align 8
  br label %53

50:                                               ; preds = %45
  %51 = load ptr, ptr %7, align 8
  store i8 0, ptr %51, align 1
  %52 = load i64, ptr %8, align 8
  store i64 %52, ptr %3, align 8
  br label %53

53:                                               ; preds = %50, %48
  %54 = load i64, ptr %3, align 8
  store i64 %54, ptr %14, align 8
  %55 = load i8, ptr %13, align 1
  %56 = trunc i8 %55 to i1
  br i1 %56, label %57, label %61

57:                                               ; preds = %53
  %58 = load i64, ptr %10, align 8
  %59 = load i64, ptr %11, align 8
  %60 = load i64, ptr %12, align 8
  call void (i32, ptr, ...) @zend_error_noreturn(i32 noundef 1, ptr noundef @.str.11, i64 noundef %58, i64 noundef %59, i64 noundef %60) #21
  unreachable

61:                                               ; preds = %53
  %62 = load i64, ptr %14, align 8
  store i64 %62, ptr %16, align 8
  %63 = load i64, ptr %16, align 8
  %64 = call noalias ptr @__zend_malloc(i64 noundef %63) #25
  store ptr %64, ptr %17, align 8
  %65 = load ptr, ptr %17, align 8
  %66 = load i64, ptr %16, align 8
  call void @llvm.memset.p0.i64(ptr align 1 %65, i8 0, i64 %66, i1 false)
  %67 = load ptr, ptr %17, align 8
  ret ptr %67
}