; Function Attrs: nounwind allocsize(0,1) uwtable
define noalias noundef ptr @__zend_calloc(i64 noundef %0, i64 noundef %1) local_unnamed_addr #10 {
  %3 = tail call { i64, i64 } asm "mulq $3\0A\09adc $$0,$1", "=&{ax},=&{dx},%0,rm,~{dirflag},~{fpsr},~{flags}"(i64 %0, i64 %1) #41, !srcloc !6
  %4 = extractvalue { i64, i64 } %3, 0
  %5 = extractvalue { i64, i64 } %3, 1
  %.not.not = icmp eq i64 %5, 0
  br i1 %.not.not, label %7, label %6

6:                                                ; preds = %2
  tail call void (i32, ptr, ...) @zend_error_noreturn(i32 noundef 1, ptr noundef nonnull @.str.11, i64 noundef %0, i64 noundef %1, i64 noundef 0) #38
  unreachable

7:                                                ; preds = %2
  %8 = tail call noalias ptr @malloc(i64 noundef %4) #39
  %9 = icmp ne ptr %8, null
  %.not.i = icmp eq i64 %4, 0
  %10 = or i1 %.not.i, %9
  br i1 %10, label %__zend_malloc.exit, label %11

11:                                               ; preds = %7
  tail call fastcc void @zend_out_of_memory() #34
  unreachable

__zend_malloc.exit:                               ; preds = %7
  tail call void @llvm.memset.p0.i64(ptr align 1 %8, i8 0, i64 %4, i1 false)
  ret ptr %8
}